target datalayout = "e-m:e-p270:32:32-p271:32:32-p272:64:64-i64:64-i128:128-f80:128-n8:16:32:64-S128"
target triple = "x86_64-pc-linux-gnu"

%struct.H5FL_reg_head_t = type { i8, i32, i32, ptr, i64, ptr }
%struct.H5C_class_t = type { i32, ptr, i32, i32, ptr, ptr, ptr, ptr, ptr, ptr, ptr, ptr, ptr, ptr }
%struct.H5O_t = type { %struct.H5C_cache_entry_t, i64, i64, i8, i64, i8, i32, i8, i8, i64, i64, i64, i64, i32, i32, i64, i64, ptr, i64, i64, i64, i64, ptr, i8, ptr }
%struct.H5C_cache_entry_t = type { ptr, i64, i64, ptr, i8, ptr, i8, i8, i8, i8, i32, i8, i8, i8, i8, i8, i32, ptr, i32, i32, i32, i32, i32, i8, i8, ptr, ptr, ptr, ptr, ptr, ptr, i8, i32, i8, i64, ptr, i64, i64, i32, i8, i32, i32, i8, ptr, ptr, ptr }
%struct.H5O_chunk_proxy_t = type { %struct.H5C_cache_entry_t, ptr, ptr, i32, ptr }
%struct.H5O_chunk_t = type { i64, i64, i64, ptr, ptr }
%struct.H5O_chk_cache_ud_t = type { i8, ptr, i32, i64, %struct.H5O_common_cache_ud_t }
%struct.H5O_common_cache_ud_t = type { ptr, i32, i32, ptr, i64 }

@H5_H5O_chunk_proxy_t_reg_free_list = global %struct.H5FL_reg_head_t { i8 0, i32 0, i32 0, ptr @.str, i64 280, ptr null }, align 8
@.str.1 = private unnamed_addr constant [102 x i8] c"generated/home/dtcxzyw/WorkSpace/Projects/compilers/llvm-opt-benchmark/bench/hdf5/hdf5/src/H5Ochunk.c\00", align 1
@.str.2 = private unnamed_addr constant [25 x i8] c"memory allocation failed\00", align 1
@H5E_OHDR_g = external global i64, align 8
@H5E_CANTINC_g = external global i64, align 8
@.str.3 = private unnamed_addr constant [49 x i8] c"can't increment reference count on object header\00", align 1
@H5E_CANTPROTECT_g = external global i64, align 8
@.str.4 = private unnamed_addr constant [35 x i8] c"unable to load object header chunk\00", align 1
@H5AC_OHDR_CHK = external constant [1 x %struct.H5C_class_t], align 16
@H5E_CANTRELEASE_g = external global i64, align 8
@.str.6 = private unnamed_addr constant [38 x i8] c"unable to destroy object header chunk\00", align 1
@__func__.H5O__chunk_protect = private unnamed_addr constant [19 x i8] c"H5O__chunk_protect\00", align 1
@H5E_CANTALLOC_g = external global i64, align 8
@H5E_CANTDEC_g = external global i64, align 8
@.str.9 = private unnamed_addr constant [49 x i8] c"can't decrement reference count on object header\00", align 1
@__func__.H5O__chunk_dest = private unnamed_addr constant [16 x i8] c"H5O__chunk_dest\00", align 1

; Function Attrs: nounwind uwtable
define i32 @H5O__chunk_dest(ptr noundef %0) #0 {
  %2 = alloca ptr, align 8
  %3 = alloca i32, align 4
  %4 = alloca i8, align 1
  store ptr %0, ptr %2, align 8
  store i32 0, ptr %3, align 4
  store i8 0, ptr %4, align 1
  %5 = load ptr, ptr %2, align 8
  %6 = getelementptr inbounds %struct.H5O_chunk_proxy_t, ptr %5, i32 0, i32 2
  %7 = load ptr, ptr %6, align 8
  %8 = call i32 @H5O__dec_rc(ptr noundef %7)
  %9 = icmp slt i32 %8, 0
  br i1 %9, label %10, label %25

10:                                               ; preds = %1
  br label %11

11:                                               ; preds = %10
  br label %12

12:                                               ; preds = %11
  br label %13

13:                                               ; preds = %12
  %14 = load i64, ptr @H5E_OHDR_g, align 8
  %15 = load i64, ptr @H5E_CANTDEC_g, align 8
  %16 = call i32 (ptr, ptr, i32, i64, i64, ptr, ...) @H5E_printf_stack(ptr noundef @.str.1, ptr noundef @__func__.H5O__chunk_dest, i32 noundef 393, i64 noundef %14, i64 noundef %15, ptr noundef @.str.9)
  br label %17

17:                                               ; preds = %13
  store i8 1, ptr %4, align 1
  %18 = load i8, ptr %4, align 1
  %19 = trunc i8 %18 to i1
  %20 = zext i1 %19 to i8
  store i8 %20, ptr %4, align 1
  br label %21

21:                                               ; preds = %17
  br label %22

22:                                               ; preds = %21
  store i32 -1, ptr %3, align 4
  br label %26

23:                                               ; No predecessors!
  br label %24

24:                                               ; preds = %23
  br label %25

25:                                               ; preds = %24, %1
  br label %26

26:                                               ; preds = %25, %22
  %27 = load ptr, ptr %2, align 8
  %28 = call ptr @H5FL_reg_free(ptr noundef @H5_H5O_chunk_proxy_t_reg_free_list, ptr noundef %27)
  store ptr %28, ptr %2, align 8
  %29 = load i32, ptr %3, align 4
  ret i32 %29
}

; Function Attrs: nounwind uwtable
define ptr @H5O__chunk_protect(ptr noundef %0, ptr noundef %1, i32 noundef %2) #0 {
  %4 = alloca ptr, align 8
  %5 = alloca ptr, align 8
  %6 = alloca i32, align 4
  %7 = alloca ptr, align 8
  %8 = alloca ptr, align 8
  %9 = alloca i64, align 8
  %10 = alloca i8, align 1
  %11 = alloca %struct.H5O_chk_cache_ud_t, align 8
  store ptr %0, ptr %4, align 8
  store ptr %1, ptr %5, align 8
  store i32 %2, ptr %6, align 4
  store ptr null, ptr %7, align 8
  store ptr null, ptr %8, align 8
  store i64 -1, ptr %9, align 8
  store i8 0, ptr %10, align 1
  %12 = load ptr, ptr %5, align 8
  %13 = getelementptr inbounds %struct.H5O_t, ptr %12, i32 0, i32 0
  %14 = getelementptr inbounds %struct.H5C_cache_entry_t, ptr %13, i32 0, i32 1
  %15 = load i64, ptr %14, align 8
  call void @H5AC_tag(i64 noundef %15, ptr noundef %9)
  %16 = load i32, ptr %6, align 4
  %17 = icmp eq i32 0, %16
  br i1 %17, label %18, label %65

18:                                               ; preds = %3
  %19 = call noalias ptr @H5FL_reg_calloc(ptr noundef @H5_H5O_chunk_proxy_t_reg_free_list)
  store ptr %19, ptr %7, align 8
  %20 = icmp eq ptr null, %19
  br i1 %20, label %21, label %36

21:                                               ; preds = %18
  br label %22

22:                                               ; preds = %21
  br label %23

23:                                               ; preds = %22
  br label %24

24:                                               ; preds = %23
  %25 = load i64, ptr @H5E_OHDR_g, align 8
  %26 = load i64, ptr @H5E_CANTALLOC_g, align 8
  %27 = call i32 (ptr, ptr, i32, i64, i64, ptr, ...) @H5E_printf_stack(ptr noundef @.str.1, ptr noundef @__func__.H5O__chunk_protect, i32 noundef 159, i64 noundef %25, i64 noundef %26, ptr noundef @.str.2)
  br label %28

28:                                               ; preds = %24
  store i8 1, ptr %10, align 1
  %29 = load i8, ptr %10, align 1
  %30 = trunc i8 %29 to i1
  %31 = zext i1 %30 to i8
  store i8 %31, ptr %10, align 1
  br label %32

32:                                               ; preds = %28
  br label %33

33:                                               ; preds = %32
  store ptr null, ptr %8, align 8
  br label %108

34:                                               ; No predecessors!
  br label %35

35:                                               ; preds = %34
  br label %36

36:                                               ; preds = %35, %18
  %37 = load ptr, ptr %5, align 8
  %38 = call i32 @H5O__inc_rc(ptr noundef %37)
  %39 = icmp slt i32 %38, 0
  br i1 %39, label %40, label %55

40:                                               ; preds = %36
  br label %41

41:                                               ; preds = %40
  br label %42

42:                                               ; preds = %41
  br label %43

43:                                               ; preds = %42
  %44 = load i64, ptr @H5E_OHDR_g, align 8
  %45 = load i64, ptr @H5E_CANTINC_g, align 8
  %46 = call i32 (ptr, ptr, i32, i64, i64, ptr, ...) @H5E_printf_stack(ptr noundef @.str.1, ptr noundef @__func__.H5O__chunk_protect, i32 noundef 163, i64 noundef %44, i64 noundef %45, ptr noundef @.str.3)
  br label %47

47:                                               ; preds = %43
  store i8 1, ptr %10, align 1
  %48 = load i8, ptr %10, align 1
  %49 = trunc i8 %48 to i1
  %50 = zext i1 %49 to i8
  store i8 %50, ptr %10, align 1
  br label %51

51:                                               ; preds = %47
  br label %52

52:                                               ; preds = %51
  store ptr null, ptr %8, align 8
  br label %108

53:                                               ; No predecessors!
  br label %54

54:                                               ; preds = %53
  br label %55

55:                                               ; preds = %54, %36
  %56 = load ptr, ptr %4, align 8
  %57 = load ptr, ptr %7, align 8
  %58 = getelementptr inbounds %struct.H5O_chunk_proxy_t, ptr %57, i32 0, i32 1
  store ptr %56, ptr %58, align 8
  %59 = load ptr, ptr %5, align 8
  %60 = load ptr, ptr %7, align 8
  %61 = getelementptr inbounds %struct.H5O_chunk_proxy_t, ptr %60, i32 0, i32 2
  store ptr %59, ptr %61, align 8
  %62 = load i32, ptr %6, align 4
  %63 = load ptr, ptr %7, align 8
  %64 = getelementptr inbounds %struct.H5O_chunk_proxy_t, ptr %63, i32 0, i32 3
  store i32 %62, ptr %64, align 8
  br label %106

65:                                               ; preds = %3
  call void @llvm.memset.p0.i64(ptr align 8 %11, i8 0, i64 64, i1 false)
  %66 = load ptr, ptr %5, align 8
  %67 = getelementptr inbounds %struct.H5O_chk_cache_ud_t, ptr %11, i32 0, i32 1
  store ptr %66, ptr %67, align 8
  %68 = load i32, ptr %6, align 4
  %69 = getelementptr inbounds %struct.H5O_chk_cache_ud_t, ptr %11, i32 0, i32 2
  store i32 %68, ptr %69, align 8
  %70 = load ptr, ptr %5, align 8
  %71 = getelementptr inbounds %struct.H5O_t, ptr %70, i32 0, i32 22
  %72 = load ptr, ptr %71, align 8
  %73 = load i32, ptr %6, align 4
  %74 = zext i32 %73 to i64
  %75 = getelementptr inbounds %struct.H5O_chunk_t, ptr %72, i64 %74
  %76 = getelementptr inbounds %struct.H5O_chunk_t, ptr %75, i32 0, i32 1
  %77 = load i64, ptr %76, align 8
  %78 = getelementptr inbounds %struct.H5O_chk_cache_ud_t, ptr %11, i32 0, i32 3
  store i64 %77, ptr %78, align 8
  %79 = load ptr, ptr %4, align 8
  %80 = load ptr, ptr %5, align 8
  %81 = getelementptr inbounds %struct.H5O_t, ptr %80, i32 0, i32 22
  %82 = load ptr, ptr %81, align 8
  %83 = load i32, ptr %6, align 4
  %84 = zext i32 %83 to i64
  %85 = getelementptr inbounds %struct.H5O_chunk_t, ptr %82, i64 %84
  %86 = getelementptr inbounds %struct.H5O_chunk_t, ptr %85, i32 0, i32 0
  %87 = load i64, ptr %86, align 8
  %88 = call ptr @H5AC_protect(ptr noundef %79, ptr noundef @H5AC_OHDR_CHK, i64 noundef %87, ptr noundef %11, i32 noundef 0)
  store ptr %88, ptr %7, align 8
  %89 = icmp eq ptr null, %88
  br i1 %89, label %90, label %105

90:                                               ; preds = %65
  br label %91

91:                                               ; preds = %90
  br label %92

92:                                               ; preds = %91
  br label %93

93:                                               ; preds = %92
  %94 = load i64, ptr @H5E_OHDR_g, align 8
  %95 = load i64, ptr @H5E_CANTPROTECT_g, align 8
  %96 = call i32 (ptr, ptr, i32, i64, i64, ptr, ...) @H5E_printf_stack(ptr noundef @.str.1, ptr noundef @__func__.H5O__chunk_protect, i32 noundef 183, i64 noundef %94, i64 noundef %95, ptr noundef @.str.4)
  br label %97

97:                                               ; preds = %93
  store i8 1, ptr %10, align 1
  %98 = load i8, ptr %10, align 1
  %99 = trunc i8 %98 to i1
  %100 = zext i1 %99 to i8
  store i8 %100, ptr %10, align 1
  br label %101

101:                                              ; preds = %97
  br label %102

102:                                              ; preds = %101
  store ptr null, ptr %8, align 8
  br label %108

103:                                              ; No predecessors!
  br label %104

104:                                              ; preds = %103
  br label %105

105:                                              ; preds = %104, %65
  br label %106

106:                                              ; preds = %105, %55
  %107 = load ptr, ptr %7, align 8
  store ptr %107, ptr %8, align 8
  br label %108

108:                                              ; preds = %106, %102, %52, %33
  %109 = load ptr, ptr %8, align 8
  %110 = icmp ne ptr %109, null
  br i1 %110, label %135, label %111

111:                                              ; preds = %108
  %112 = load i32, ptr %6, align 4
  %113 = icmp eq i32 0, %112
  br i1 %113, label %114, label %134

114:                                              ; preds = %111
  %115 = load ptr, ptr %7, align 8
  %116 = icmp ne ptr %115, null
  br i1 %116, label %117, label %134

117:                                              ; preds = %114
  %118 = load ptr, ptr %7, align 8
  %119 = call i32 @H5O__chunk_dest(ptr noundef %118)
  %120 = icmp slt i32 %119, 0
  br i1 %120, label %121, label %134

121:                                              ; preds = %117
  br label %122

122:                                              ; preds = %121
  br label %123

123:                                              ; preds = %122
  br label %124

124:                                              ; preds = %123
  %125 = load i64, ptr @H5E_OHDR_g, align 8
  %126 = load i64, ptr @H5E_CANTRELEASE_g, align 8
  %127 = call i32 (ptr, ptr, i32, i64, i64, ptr, ...) @H5E_printf_stack(ptr noundef @.str.1, ptr noundef @__func__.H5O__chunk_protect, i32 noundef 197, i64 noundef %125, i64 noundef %126, ptr noundef @.str.6)
  br label %128

128:                                              ; preds = %124
  store i8 1, ptr %10, align 1
  %129 = load i8, ptr %10, align 1
  %130 = trunc i8 %129 to i1
  %131 = zext i1 %130 to i8
  store i8 %131, ptr %10, align 1
  br label %132

132:                                              ; preds = %128
  store ptr null, ptr %8, align 8
  br label %133

133:                                              ; preds = %132
  br label %134

134:                                              ; preds = %133, %117, %114, %111
  br label %135

135:                                              ; preds = %134, %108
  %136 = load i64, ptr %9, align 8
  call void @H5AC_tag(i64 noundef %136, ptr noundef null)
  %137 = load ptr, ptr %8, align 8
  ret ptr %137
}