; Function Attrs: nounwind uwtable
define ptr @H5O__chunk_protect(ptr noundef %0, ptr noundef %1, i32 noundef %2) local_unnamed_addr #0 {
  %4 = alloca i64, align 8
  %5 = alloca %struct.H5O_chk_cache_ud_t, align 8
  store i64 -1, ptr %4, align 8
  %6 = getelementptr inbounds i8, ptr %1, i64 8
  %7 = load i64, ptr %6, align 8
  call void @H5AC_tag(i64 noundef %7, ptr noundef nonnull %4) #3
  %8 = icmp eq i32 %2, 0
  br i1 %8, label %9, label %23

9:                                                ; preds = %3
  %10 = call noalias ptr @H5FL_reg_calloc(ptr noundef nonnull @H5_H5O_chunk_proxy_t_reg_free_list) #3
  %11 = icmp eq ptr %10, null
  br i1 %11, label %12, label %16

12:                                               ; preds = %9
  %13 = load i64, ptr @H5E_OHDR_g, align 8
  %14 = load i64, ptr @H5E_CANTALLOC_g, align 8
  %15 = call i32 (ptr, ptr, i32, i64, i64, ptr, ...) @H5E_printf_stack(ptr noundef nonnull @.str.1, ptr noundef nonnull @__func__.H5O__chunk_protect, i32 noundef 159, i64 noundef %13, i64 noundef %14, ptr noundef nonnull @.str.2) #3
  br label %.thread39

16:                                               ; preds = %9
  %17 = call i32 @H5O__inc_rc(ptr noundef nonnull %1) #3
  %18 = icmp slt i32 %17, 0
  br i1 %18, label %40, label %19

19:                                               ; preds = %16
  %20 = getelementptr inbounds i8, ptr %10, i64 248
  store ptr %0, ptr %20, align 8
  %21 = getelementptr inbounds i8, ptr %10, i64 256
  store ptr %1, ptr %21, align 8
  %22 = getelementptr inbounds i8, ptr %10, i64 264
  store i32 0, ptr %22, align 8
  br label %.thread39

23:                                               ; preds = %3
  call void @llvm.memset.p0.i64(ptr noundef nonnull align 8 dereferenceable(64) %5, i8 0, i64 64, i1 false)
  %24 = getelementptr inbounds i8, ptr %5, i64 8
  store ptr %1, ptr %24, align 8
  %25 = getelementptr inbounds i8, ptr %5, i64 16
  store i32 %2, ptr %25, align 8
  %26 = getelementptr inbounds i8, ptr %1, i64 392
  %27 = load ptr, ptr %26, align 8
  %28 = zext i32 %2 to i64
  %29 = getelementptr inbounds %struct.H5O_chunk_t, ptr %27, i64 %28, i32 1
  %30 = load i64, ptr %29, align 8
  %31 = getelementptr inbounds i8, ptr %5, i64 24
  store i64 %30, ptr %31, align 8
  %32 = getelementptr inbounds %struct.H5O_chunk_t, ptr %27, i64 %28
  %33 = load i64, ptr %32, align 8
  %34 = call ptr @H5AC_protect(ptr noundef %0, ptr noundef nonnull @H5AC_OHDR_CHK, i64 noundef %33, ptr noundef nonnull %5, i32 noundef 0) #3
  %35 = icmp eq ptr %34, null
  br i1 %35, label %36, label %.thread39

36:                                               ; preds = %23
  %37 = load i64, ptr @H5E_OHDR_g, align 8
  %38 = load i64, ptr @H5E_CANTPROTECT_g, align 8
  %39 = call i32 (ptr, ptr, i32, i64, i64, ptr, ...) @H5E_printf_stack(ptr noundef nonnull @.str.1, ptr noundef nonnull @__func__.H5O__chunk_protect, i32 noundef 183, i64 noundef %37, i64 noundef %38, ptr noundef nonnull @.str.4) #3
  br label %.thread39

40:                                               ; preds = %16
  %41 = load i64, ptr @H5E_OHDR_g, align 8
  %42 = load i64, ptr @H5E_CANTINC_g, align 8
  %43 = call i32 (ptr, ptr, i32, i64, i64, ptr, ...) @H5E_printf_stack(ptr noundef nonnull @.str.1, ptr noundef nonnull @__func__.H5O__chunk_protect, i32 noundef 163, i64 noundef %41, i64 noundef %42, ptr noundef nonnull @.str.3) #3
  %44 = getelementptr inbounds i8, ptr %10, i64 256
  %45 = load ptr, ptr %44, align 8
  %46 = call i32 @H5O__dec_rc(ptr noundef %45) #3
  %47 = icmp slt i32 %46, 0
  br i1 %47, label %49, label %H5O__chunk_dest.exit

H5O__chunk_dest.exit:                             ; preds = %40
  %48 = call ptr @H5FL_reg_free(ptr noundef nonnull @H5_H5O_chunk_proxy_t_reg_free_list, ptr noundef nonnull %10) #3
  br label %.thread39

49:                                               ; preds = %40
  %50 = load i64, ptr @H5E_OHDR_g, align 8
  %51 = load i64, ptr @H5E_CANTDEC_g, align 8
  %52 = call i32 (ptr, ptr, i32, i64, i64, ptr, ...) @H5E_printf_stack(ptr noundef nonnull @.str.1, ptr noundef nonnull @__func__.H5O__chunk_dest, i32 noundef 393, i64 noundef %50, i64 noundef %51, ptr noundef nonnull @.str.9) #3
  %53 = call ptr @H5FL_reg_free(ptr noundef nonnull @H5_H5O_chunk_proxy_t_reg_free_list, ptr noundef nonnull %10) #3
  %54 = load i64, ptr @H5E_OHDR_g, align 8
  %55 = load i64, ptr @H5E_CANTRELEASE_g, align 8
  %56 = call i32 (ptr, ptr, i32, i64, i64, ptr, ...) @H5E_printf_stack(ptr noundef nonnull @.str.1, ptr noundef nonnull @__func__.H5O__chunk_protect, i32 noundef 197, i64 noundef %54, i64 noundef %55, ptr noundef nonnull @.str.6) #3
  br label %.thread39

.thread39:                                        ; preds = %12, %36, %H5O__chunk_dest.exit, %23, %19, %49
  %.1 = phi ptr [ null, %49 ], [ null, %H5O__chunk_dest.exit ], [ %10, %19 ], [ %34, %23 ], [ null, %36 ], [ null, %12 ]
  %57 = load i64, ptr %4, align 8
  call void @H5AC_tag(i64 noundef %57, ptr noundef null) #3
  ret ptr %.1
}